target datalayout = "e-m:e-p270:32:32-p271:32:32-p272:64:64-i64:64-i128:128-f80:128-n8:16:32:64-S128"
target triple = "x86_64-pc-linux-gnu"

%class.Register = type { i32 }
%class.XMMRegister = type { i32 }
%class.RelocationHolder = type { [40 x i8] }
%class.MachNode = type { %class.Node.base, i8, i16, ptr }
%class.Node.base = type <{ ptr, ptr, ptr, i32, i32, i32, i32, i32, i32, i32 }>
%class.Address = type { %class.Register, %class.Register, %class.XMMRegister, i32, i32, i8, [3 x i8], %class.RelocationHolder }
%class.Node = type <{ ptr, ptr, ptr, i32, i32, i32, i32, i32, i32, i32, [4 x i8] }>
%class.Type.base = type <{ ptr, ptr, i32 }>
%class.MachTypeNode = type { %class.MachNode, ptr }
%class.TypeVect = type <{ %class.Type.base, [4 x i8], ptr, i32, [4 x i8] }>
%class.vmasked_store_avx_non_subwordNode = type { %class.MachTypeNode, [4 x ptr] }

@g_assert_poison = external global ptr, align 8
@.str.22 = private unnamed_addr constant [27 x i8] c"src/hotspot/cpu/x86/x86.ad\00", align 1
@_ZL6xnoreg = internal constant %class.XMMRegister { i32 -1 }, align 4

; Function Attrs: mustprogress nounwind uwtable
define linkonce_odr hidden void @_ZN11XMMRegisterC2Eib(ptr noundef nonnull align 4 dereferenceable(4) %0, i32 noundef %1, i1 noundef zeroext %2) unnamed_addr #1 comdat align 2 {
  %4 = alloca ptr, align 8
  %5 = alloca i32, align 4
  %6 = alloca i8, align 1
  store ptr %0, ptr %4, align 8
  store i32 %1, ptr %5, align 4
  %7 = zext i1 %2 to i8
  store i8 %7, ptr %6, align 1
  %8 = load ptr, ptr %4, align 8
  %9 = getelementptr inbounds %class.XMMRegister, ptr %8, i32 0, i32 0
  %10 = load i32, ptr %5, align 4
  store i32 %10, ptr %9, align 4
  ret void
}

; Function Attrs: mustprogress nounwind uwtable
define linkonce_odr hidden i32 @_Z14as_XMMRegisteri(i32 noundef %0) #1 comdat {
  %2 = alloca %class.XMMRegister, align 4
  %3 = alloca i32, align 4
  store i32 %0, ptr %3, align 4
  %4 = load i32, ptr %3, align 4
  %5 = icmp sle i32 0, %4
  br i1 %5, label %6, label %11

6:                                                ; preds = %1
  %7 = load i32, ptr %3, align 4
  %8 = icmp slt i32 %7, 32
  br i1 %8, label %9, label %11

9:                                                ; preds = %6
  %10 = load i32, ptr %3, align 4
  call void @_ZN11XMMRegisterC2Eib(ptr noundef nonnull align 4 dereferenceable(4) %2, i32 noundef %10, i1 noundef zeroext false)
  br label %12

11:                                               ; preds = %6, %1
  call void @llvm.memcpy.p0.p0.i64(ptr align 4 %2, ptr align 4 @_ZL6xnoreg, i64 4, i1 false)
  br label %12

12:                                               ; preds = %11, %9
  %13 = getelementptr inbounds %class.XMMRegister, ptr %2, i32 0, i32 0
  %14 = load i32, ptr %13, align 4
  ret i32 %14
}

; Function Attrs: mustprogress nounwind uwtable
define linkonce_odr hidden noundef i32 @_Z22vector_length_encodingi(i32 noundef %0) #1 comdat {
  %2 = alloca i32, align 4
  %3 = alloca i32, align 4
  store i32 %0, ptr %3, align 4
  %4 = load i32, ptr %3, align 4
  switch i32 %4, label %8 [
    i32 4, label %5
    i32 8, label %5
    i32 16, label %5
    i32 32, label %6
    i32 64, label %7
  ]

5:                                                ; preds = %1, %1, %1
  store i32 0, ptr %2, align 4
  br label %12

6:                                                ; preds = %1
  store i32 1, ptr %2, align 4
  br label %12

7:                                                ; preds = %1
  store i32 2, ptr %2, align 4
  br label %12

8:                                                ; preds = %1
  br label %9

9:                                                ; preds = %8
  %10 = load ptr, ptr @g_assert_poison, align 8
  store i8 88, ptr %10, align 1
  call void @_Z28report_should_not_reach_herePKci(ptr noundef @.str.22, i32 noundef 1228) #8
  unreachable

11:                                               ; No predecessors!
  store i32 4, ptr %2, align 4
  br label %12

12:                                               ; preds = %11, %7, %6, %5
  %13 = load i32, ptr %2, align 4
  ret i32 %13
}

; Function Attrs: mustprogress nounwind uwtable
define linkonce_odr hidden i32 @_ZNK8MachOper14as_XMMRegisterEP13PhaseRegAllocPK4Nodei(ptr noundef nonnull align 8 dereferenceable(8) %0, ptr noundef %1, ptr noundef %2, i32 noundef %3) #1 comdat align 2 {
  %5 = alloca %class.XMMRegister, align 4
  %6 = alloca ptr, align 8
  %7 = alloca ptr, align 8
  %8 = alloca ptr, align 8
  %9 = alloca i32, align 4
  store ptr %0, ptr %6, align 8
  store ptr %1, ptr %7, align 8
  store ptr %2, ptr %8, align 8
  store i32 %3, ptr %9, align 4
  %10 = load ptr, ptr %6, align 8
  %11 = load ptr, ptr %7, align 8
  %12 = load ptr, ptr %8, align 8
  %13 = load i32, ptr %9, align 4
  %14 = load ptr, ptr %10, align 8
  %15 = getelementptr inbounds ptr, ptr %14, i64 5
  %16 = load ptr, ptr %15, align 8
  %17 = call noundef i32 %16(ptr noundef nonnull align 8 dereferenceable(8) %10, ptr noundef %11, ptr noundef %12, i32 noundef %13)
  %18 = call i32 @_Z14as_XMMRegisteri(i32 noundef %17)
  %19 = getelementptr inbounds %class.XMMRegister, ptr %5, i32 0, i32 0
  store i32 %18, ptr %19, align 4
  %20 = getelementptr inbounds %class.XMMRegister, ptr %5, i32 0, i32 0
  %21 = load i32, ptr %20, align 4
  ret i32 %21
}

; Function Attrs: mustprogress nounwind uwtable
define linkonce_odr hidden noundef zeroext i8 @_ZNK8TypeVect18element_basic_typeEv(ptr noundef nonnull align 8 dereferenceable(36) %0) #1 comdat align 2 {
  %2 = alloca ptr, align 8
  store ptr %0, ptr %2, align 8
  %3 = load ptr, ptr %2, align 8
  %4 = getelementptr inbounds %class.TypeVect, ptr %3, i32 0, i32 2
  %5 = load ptr, ptr %4, align 8
  %6 = call noundef zeroext i8 @_ZNK4Type24array_element_basic_typeEv(ptr noundef nonnull align 8 dereferenceable(20) %5)
  ret i8 %6
}

; Function Attrs: mustprogress nounwind uwtable
define linkonce_odr hidden noundef ptr @_ZNK4Type7is_vectEv(ptr noundef nonnull align 8 dereferenceable(20) %0) #1 comdat align 2 {
  %2 = alloca ptr, align 8
  store ptr %0, ptr %2, align 8
  %3 = load ptr, ptr %2, align 8
  ret ptr %3
}

; Function Attrs: mustprogress nounwind uwtable
define internal noundef i32 @_ZL22vector_length_encodingPK4Node(ptr noundef %0) #1 {
  %2 = alloca ptr, align 8
  store ptr %0, ptr %2, align 8
  %3 = load ptr, ptr %2, align 8
  %4 = call noundef i32 @_ZN7Matcher22vector_length_in_bytesEPK4Node(ptr noundef %3)
  %5 = call noundef i32 @_Z22vector_length_encodingi(i32 noundef %4)
  ret i32 %5
}

; Function Attrs: mustprogress nounwind uwtable
define linkonce_odr hidden noundef ptr @_ZNK4Node2inEj(ptr noundef nonnull align 8 dereferenceable(52) %0, i32 noundef %1) #1 comdat align 2 {
  %3 = alloca ptr, align 8
  %4 = alloca i32, align 4
  store ptr %0, ptr %3, align 8
  store i32 %1, ptr %4, align 4
  %5 = load ptr, ptr %3, align 8
  %6 = getelementptr inbounds %class.Node, ptr %5, i32 0, i32 1
  %7 = load ptr, ptr %6, align 8
  %8 = load i32, ptr %4, align 4
  %9 = zext i32 %8 to i64
  %10 = getelementptr inbounds ptr, ptr %7, i64 %9
  %11 = load ptr, ptr %10, align 8
  ret ptr %11
}

; Function Attrs: mustprogress nounwind uwtable
define linkonce_odr hidden noundef ptr @_ZNK33vmasked_store_avx_non_subwordNode10opnd_arrayEj(ptr noundef nonnull align 8 dereferenceable(104) %0, i32 noundef %1) #1 comdat align 2 {
  %3 = alloca ptr, align 8
  %4 = alloca i32, align 4
  store ptr %0, ptr %3, align 8
  store i32 %1, ptr %4, align 4
  %5 = load ptr, ptr %3, align 8
  %6 = getelementptr inbounds %class.vmasked_store_avx_non_subwordNode, ptr %5, i32 0, i32 1
  %7 = load i32, ptr %4, align 4
  %8 = zext i32 %7 to i64
  %9 = getelementptr inbounds [4 x ptr], ptr %6, i64 0, i64 %8
  %10 = load ptr, ptr %9, align 8
  ret ptr %10
}

; Function Attrs: mustprogress nounwind uwtable
define hidden void @_ZNK33vmasked_store_avx_non_subwordNode4emitEP17C2_MacroAssemblerP13PhaseRegAlloc(ptr noundef nonnull align 8 dereferenceable(104) %0, ptr noundef %1, ptr noundef %2) unnamed_addr #1 align 2 {
  %4 = alloca ptr, align 8
  %5 = alloca ptr, align 8
  %6 = alloca ptr, align 8
  %7 = alloca i32, align 4
  %8 = alloca i32, align 4
  %9 = alloca i32, align 4
  %10 = alloca i32, align 4
  %11 = alloca ptr, align 8
  %12 = alloca i32, align 4
  %13 = alloca i8, align 1
  %14 = alloca %class.Address, align 8
  %15 = alloca %class.XMMRegister, align 4
  %16 = alloca %class.XMMRegister, align 4
  store ptr %0, ptr %4, align 8
  store ptr %1, ptr %5, align 8
  store ptr %2, ptr %6, align 8
  %17 = load ptr, ptr %4, align 8
  store i32 2, ptr %7, align 4
  store i32 2, ptr %8, align 4
  %18 = load i32, ptr %8, align 4
  %19 = call noundef ptr @_ZNK33vmasked_store_avx_non_subwordNode10opnd_arrayEj(ptr noundef nonnull align 8 dereferenceable(104) %17, i32 noundef 1)
  %20 = load ptr, ptr %19, align 8
  %21 = getelementptr inbounds ptr, ptr %20, i64 1
  %22 = load ptr, ptr %21, align 8
  %23 = call noundef i32 %22(ptr noundef nonnull align 8 dereferenceable(8) %19)
  %24 = add i32 %18, %23
  store i32 %24, ptr %9, align 4
  %25 = load i32, ptr %9, align 4
  %26 = call noundef ptr @_ZNK33vmasked_store_avx_non_subwordNode10opnd_arrayEj(ptr noundef nonnull align 8 dereferenceable(104) %17, i32 noundef 2)
  %27 = load ptr, ptr %26, align 8
  %28 = getelementptr inbounds ptr, ptr %27, i64 1
  %29 = load ptr, ptr %28, align 8
  %30 = call noundef i32 %29(ptr noundef nonnull align 8 dereferenceable(8) %26)
  %31 = add i32 %25, %30
  store i32 %31, ptr %10, align 4
  %32 = call noundef ptr @_ZNK33vmasked_store_avx_non_subwordNode10opnd_arrayEj(ptr noundef nonnull align 8 dereferenceable(104) %17, i32 noundef 2)
  %33 = call noundef i32 @_ZNK8MachNode13operand_indexEPK8MachOper(ptr noundef nonnull align 8 dereferenceable(64) %17, ptr noundef %32)
  %34 = call noundef ptr @_ZNK4Node2inEj(ptr noundef nonnull align 8 dereferenceable(52) %17, i32 noundef %33)
  store ptr %34, ptr %11, align 8
  %35 = load ptr, ptr %11, align 8
  %36 = call noundef i32 @_ZL22vector_length_encodingPK4Node(ptr noundef %35)
  store i32 %36, ptr %12, align 4
  %37 = load ptr, ptr %11, align 8
  %38 = load ptr, ptr %37, align 8
  %39 = getelementptr inbounds ptr, ptr %38, i64 5
  %40 = load ptr, ptr %39, align 8
  %41 = call noundef ptr %40(ptr noundef nonnull align 8 dereferenceable(64) %37)
  %42 = call noundef ptr @_ZNK4Type7is_vectEv(ptr noundef nonnull align 8 dereferenceable(20) %41)
  %43 = call noundef zeroext i8 @_ZNK8TypeVect18element_basic_typeEv(ptr noundef nonnull align 8 dereferenceable(36) %42)
  store i8 %43, ptr %13, align 1
  %44 = load ptr, ptr %5, align 8
  %45 = load i8, ptr %13, align 1
  %46 = call noundef ptr @_ZNK33vmasked_store_avx_non_subwordNode10opnd_arrayEj(ptr noundef nonnull align 8 dereferenceable(104) %17, i32 noundef 1)
  %47 = load ptr, ptr %6, align 8
  %48 = load i32, ptr %8, align 4
  %49 = load ptr, ptr %46, align 8
  %50 = getelementptr inbounds ptr, ptr %49, i64 13
  %51 = load ptr, ptr %50, align 8
  %52 = call noundef i32 %51(ptr noundef nonnull align 8 dereferenceable(8) %46, ptr noundef %47, ptr noundef %17, i32 noundef %48)
  %53 = call noundef ptr @_ZNK33vmasked_store_avx_non_subwordNode10opnd_arrayEj(ptr noundef nonnull align 8 dereferenceable(104) %17, i32 noundef 1)
  %54 = load ptr, ptr %6, align 8
  %55 = load i32, ptr %8, align 4
  %56 = load ptr, ptr %53, align 8
  %57 = getelementptr inbounds ptr, ptr %56, i64 14
  %58 = load ptr, ptr %57, align 8
  %59 = call noundef i32 %58(ptr noundef nonnull align 8 dereferenceable(8) %53, ptr noundef %54, ptr noundef %17, i32 noundef %55)
  %60 = call noundef ptr @_ZNK33vmasked_store_avx_non_subwordNode10opnd_arrayEj(ptr noundef nonnull align 8 dereferenceable(104) %17, i32 noundef 1)
  %61 = load ptr, ptr %60, align 8
  %62 = getelementptr inbounds ptr, ptr %61, i64 15
  %63 = load ptr, ptr %62, align 8
  %64 = call noundef i32 %63(ptr noundef nonnull align 8 dereferenceable(8) %60)
  %65 = call noundef ptr @_ZNK33vmasked_store_avx_non_subwordNode10opnd_arrayEj(ptr noundef nonnull align 8 dereferenceable(104) %17, i32 noundef 1)
  %66 = load ptr, ptr %6, align 8
  %67 = load i32, ptr %8, align 4
  %68 = load ptr, ptr %65, align 8
  %69 = getelementptr inbounds ptr, ptr %68, i64 16
  %70 = load ptr, ptr %69, align 8
  %71 = call noundef i32 %70(ptr noundef nonnull align 8 dereferenceable(8) %65, ptr noundef %66, ptr noundef %17, i32 noundef %67)
  %72 = call noundef ptr @_ZNK33vmasked_store_avx_non_subwordNode10opnd_arrayEj(ptr noundef nonnull align 8 dereferenceable(104) %17, i32 noundef 1)
  %73 = load ptr, ptr %72, align 8
  %74 = getelementptr inbounds ptr, ptr %73, i64 17
  %75 = load ptr, ptr %74, align 8
  %76 = call noundef i32 %75(ptr noundef nonnull align 8 dereferenceable(8) %72)
  call void @_ZN7Address8make_rawEiiiiN9relocInfo9relocTypeE(ptr dead_on_unwind writable sret(%class.Address) align 8 %14, i32 noundef %52, i32 noundef %59, i32 noundef %64, i32 noundef %71, i32 noundef %76)
  %77 = call noundef ptr @_ZNK33vmasked_store_avx_non_subwordNode10opnd_arrayEj(ptr noundef nonnull align 8 dereferenceable(104) %17, i32 noundef 2)
  %78 = load ptr, ptr %6, align 8
  %79 = load i32, ptr %9, align 4
  %80 = call i32 @_ZNK8MachOper14as_XMMRegisterEP13PhaseRegAllocPK4Nodei(ptr noundef nonnull align 8 dereferenceable(8) %77, ptr noundef %78, ptr noundef %17, i32 noundef %79)
  %81 = getelementptr inbounds %class.XMMRegister, ptr %15, i32 0, i32 0
  store i32 %80, ptr %81, align 4
  %82 = call noundef ptr @_ZNK33vmasked_store_avx_non_subwordNode10opnd_arrayEj(ptr noundef nonnull align 8 dereferenceable(104) %17, i32 noundef 3)
  %83 = load ptr, ptr %6, align 8
  %84 = load i32, ptr %10, align 4
  %85 = call i32 @_ZNK8MachOper14as_XMMRegisterEP13PhaseRegAllocPK4Nodei(ptr noundef nonnull align 8 dereferenceable(8) %82, ptr noundef %83, ptr noundef %17, i32 noundef %84)
  %86 = getelementptr inbounds %class.XMMRegister, ptr %16, i32 0, i32 0
  store i32 %85, ptr %86, align 4
  %87 = load i32, ptr %12, align 4
  %88 = getelementptr inbounds %class.XMMRegister, ptr %15, i32 0, i32 0
  %89 = load i32, ptr %88, align 4
  %90 = getelementptr inbounds %class.XMMRegister, ptr %16, i32 0, i32 0
  %91 = load i32, ptr %90, align 4
  call void @_ZN17C2_MacroAssembler8vmovmaskE9BasicType7Address11XMMRegisterS2_i(ptr noundef nonnull align 8 dereferenceable(40) %44, i8 noundef zeroext %45, ptr noundef %14, i32 %89, i32 %91, i32 noundef %87)
  ret void
}