; Function Attrs: mustprogress nounwind uwtable
define hidden void @_ZNK33vmasked_store_avx_non_subwordNode4emitEP17C2_MacroAssemblerP13PhaseRegAlloc(ptr noundef nonnull align 8 dereferenceable(104) %0, ptr noundef %1, ptr noundef %2) unnamed_addr #3 align 2 {
  %4 = alloca %class.Address, align 8
  %5 = getelementptr inbounds i8, ptr %0, i64 80
  %6 = load ptr, ptr %5, align 8
  %7 = load ptr, ptr %6, align 8
  %8 = getelementptr inbounds i8, ptr %7, i64 8
  %9 = load ptr, ptr %8, align 8
  %10 = tail call noundef i32 %9(ptr noundef nonnull align 8 dereferenceable(8) %6) #23
  %11 = getelementptr inbounds i8, ptr %0, i64 88
  %12 = load ptr, ptr %11, align 8
  %13 = load ptr, ptr %12, align 8
  %14 = getelementptr inbounds i8, ptr %13, i64 8
  %15 = load ptr, ptr %14, align 8
  %16 = tail call noundef i32 %15(ptr noundef nonnull align 8 dereferenceable(8) %12) #23
  %17 = load ptr, ptr %11, align 8
  %18 = tail call noundef i32 @_ZNK8MachNode13operand_indexEPK8MachOper(ptr noundef nonnull align 8 dereferenceable(64) %0, ptr noundef %17) #23
  %19 = getelementptr inbounds i8, ptr %0, i64 8
  %20 = load ptr, ptr %19, align 8
  %21 = zext i32 %18 to i64
  %22 = getelementptr inbounds ptr, ptr %20, i64 %21
  %23 = load ptr, ptr %22, align 8
  %24 = tail call noundef i32 @_ZN7Matcher22vector_length_in_bytesEPK4Node(ptr noundef %23) #23
  switch i32 %24, label %27 [
    i32 4, label %_ZL22vector_length_encodingPK4Node.exit
    i32 8, label %_ZL22vector_length_encodingPK4Node.exit
    i32 16, label %_ZL22vector_length_encodingPK4Node.exit
    i32 32, label %25
    i32 64, label %26
  ]

25:                                               ; preds = %3
  br label %_ZL22vector_length_encodingPK4Node.exit

26:                                               ; preds = %3
  br label %_ZL22vector_length_encodingPK4Node.exit

27:                                               ; preds = %3
  %28 = load ptr, ptr @g_assert_poison, align 8
  store i8 88, ptr %28, align 1
  tail call void @_Z28report_should_not_reach_herePKci(ptr noundef nonnull @.str.22, i32 noundef 1228) #24
  unreachable

_ZL22vector_length_encodingPK4Node.exit:          ; preds = %3, %3, %3, %25, %26
  %.0.i.i = phi i32 [ 2, %26 ], [ 1, %25 ], [ 0, %3 ], [ 0, %3 ], [ 0, %3 ]
  %29 = add i32 %10, 2
  %30 = add i32 %16, %29
  %31 = load ptr, ptr %23, align 8
  %32 = getelementptr inbounds i8, ptr %31, i64 40
  %33 = load ptr, ptr %32, align 8
  %34 = tail call noundef ptr %33(ptr noundef nonnull align 8 dereferenceable(64) %23) #23
  %35 = getelementptr inbounds i8, ptr %34, i64 24
  %36 = load ptr, ptr %35, align 8
  %37 = tail call noundef zeroext i8 @_ZNK4Type24array_element_basic_typeEv(ptr noundef nonnull align 8 dereferenceable(20) %36) #23
  %38 = load ptr, ptr %5, align 8
  %39 = load ptr, ptr %38, align 8
  %40 = getelementptr inbounds i8, ptr %39, i64 104
  %41 = load ptr, ptr %40, align 8
  %42 = tail call noundef i32 %41(ptr noundef nonnull align 8 dereferenceable(8) %38, ptr noundef %2, ptr noundef nonnull %0, i32 noundef 2) #23
  %43 = load ptr, ptr %5, align 8
  %44 = load ptr, ptr %43, align 8
  %45 = getelementptr inbounds i8, ptr %44, i64 112
  %46 = load ptr, ptr %45, align 8
  %47 = tail call noundef i32 %46(ptr noundef nonnull align 8 dereferenceable(8) %43, ptr noundef %2, ptr noundef nonnull %0, i32 noundef 2) #23
  %48 = load ptr, ptr %5, align 8
  %49 = load ptr, ptr %48, align 8
  %50 = getelementptr inbounds i8, ptr %49, i64 120
  %51 = load ptr, ptr %50, align 8
  %52 = tail call noundef i32 %51(ptr noundef nonnull align 8 dereferenceable(8) %48) #23
  %53 = load ptr, ptr %5, align 8
  %54 = load ptr, ptr %53, align 8
  %55 = getelementptr inbounds i8, ptr %54, i64 128
  %56 = load ptr, ptr %55, align 8
  %57 = tail call noundef i32 %56(ptr noundef nonnull align 8 dereferenceable(8) %53, ptr noundef %2, ptr noundef nonnull %0, i32 noundef 2) #23
  %58 = load ptr, ptr %5, align 8
  %59 = load ptr, ptr %58, align 8
  %60 = getelementptr inbounds i8, ptr %59, i64 136
  %61 = load ptr, ptr %60, align 8
  %62 = tail call noundef i32 %61(ptr noundef nonnull align 8 dereferenceable(8) %58) #23
  call void @_ZN7Address8make_rawEiiiiN9relocInfo9relocTypeE(ptr dead_on_unwind nonnull writable sret(%class.Address) align 8 %4, i32 noundef %42, i32 noundef %47, i32 noundef %52, i32 noundef %57, i32 noundef %62) #23
  %63 = load ptr, ptr %11, align 8
  %64 = load ptr, ptr %63, align 8
  %65 = getelementptr inbounds i8, ptr %64, i64 40
  %66 = load ptr, ptr %65, align 8
  %67 = call noundef i32 %66(ptr noundef nonnull align 8 dereferenceable(8) %63, ptr noundef %2, ptr noundef nonnull %0, i32 noundef %29) #23
  %or.cond.i.i = icmp ult i32 %67, 32
  %spec.select.i.i = select i1 %or.cond.i.i, i32 %67, i32 -1
  %68 = getelementptr inbounds i8, ptr %0, i64 96
  %69 = load ptr, ptr %68, align 8
  %70 = load ptr, ptr %69, align 8
  %71 = getelementptr inbounds i8, ptr %70, i64 40
  %72 = load ptr, ptr %71, align 8
  %73 = call noundef i32 %72(ptr noundef nonnull align 8 dereferenceable(8) %69, ptr noundef %2, ptr noundef nonnull %0, i32 noundef %30) #23
  %or.cond.i.i18 = icmp ult i32 %73, 32
  %spec.select.i.i19 = select i1 %or.cond.i.i18, i32 %73, i32 -1
  call void @_ZN17C2_MacroAssembler8vmovmaskE9BasicType7Address11XMMRegisterS2_i(ptr noundef nonnull align 8 dereferenceable(40) %1, i8 noundef zeroext %37, ptr noundef nonnull %4, i32 %spec.select.i.i, i32 %spec.select.i.i19, i32 noundef %.0.i.i) #23
  ret void
}